target datalayout = "e-m:e-p270:32:32-p271:32:32-p272:64:64-i64:64-i128:128-f80:128-n8:16:32:64-S128"
target triple = "x86_64-unknown-linux-gnu"

%"class.std::__shared_count" = type { ptr }
%"struct.rocksdb::AdvancedColumnFamilyOptions" = type { i32, i32, i32, i64, i8, i64, double, ptr, double, i8, i64, %"class.std::shared_ptr", i32, i64, %"class.std::vector", i32, i32, i32, i64, i32, i8, i8, double, %"class.std::vector.0", i64, i8, i64, i64, i8, i8, [2 x i8], %"class.rocksdb::CompactionOptionsUniversal", %"struct.rocksdb::CompactionOptionsFIFO", i64, %"class.std::shared_ptr.10", %"class.std::vector.13", i64, i8, i8, i8, i8, i8, i64, i64, i64, i8, i8, i8, i64, i64, i8, i64, i64, i8, i8, double, double, i64, i32, %"class.std::shared_ptr.18", i8, i32, i8, i8, i32 }
%"class.std::shared_ptr" = type { %"class.std::__shared_ptr" }
%"class.std::__shared_ptr" = type { ptr, %"class.std::__shared_count" }
%"class.std::vector" = type { %"struct.std::_Vector_base" }
%"struct.std::_Vector_base" = type { %"struct.std::_Vector_base<rocksdb::CompressionType, std::allocator<rocksdb::CompressionType>>::_Vector_impl" }
%"struct.std::_Vector_base<rocksdb::CompressionType, std::allocator<rocksdb::CompressionType>>::_Vector_impl" = type { %"struct.std::_Vector_base<rocksdb::CompressionType, std::allocator<rocksdb::CompressionType>>::_Vector_impl_data" }
%"struct.std::_Vector_base<rocksdb::CompressionType, std::allocator<rocksdb::CompressionType>>::_Vector_impl_data" = type { ptr, ptr, ptr }
%"class.std::vector.0" = type { %"struct.std::_Vector_base.1" }
%"struct.std::_Vector_base.1" = type { %"struct.std::_Vector_base<int, std::allocator<int>>::_Vector_impl" }
%"struct.std::_Vector_base<int, std::allocator<int>>::_Vector_impl" = type { %"struct.std::_Vector_base<int, std::allocator<int>>::_Vector_impl_data" }
%"struct.std::_Vector_base<int, std::allocator<int>>::_Vector_impl_data" = type { ptr, ptr, ptr }
%"class.rocksdb::CompactionOptionsUniversal" = type <{ i32, i32, i32, i32, i32, i32, i8, i8, [2 x i8] }>
%"struct.rocksdb::CompactionOptionsFIFO" = type { i64, i8, i64, %"class.std::vector.5" }
%"class.std::vector.5" = type { %"struct.std::_Vector_base.6" }
%"struct.std::_Vector_base.6" = type { %"struct.std::_Vector_base<rocksdb::FileTemperatureAge, std::allocator<rocksdb::FileTemperatureAge>>::_Vector_impl" }
%"struct.std::_Vector_base<rocksdb::FileTemperatureAge, std::allocator<rocksdb::FileTemperatureAge>>::_Vector_impl" = type { %"struct.std::_Vector_base<rocksdb::FileTemperatureAge, std::allocator<rocksdb::FileTemperatureAge>>::_Vector_impl_data" }
%"struct.std::_Vector_base<rocksdb::FileTemperatureAge, std::allocator<rocksdb::FileTemperatureAge>>::_Vector_impl_data" = type { ptr, ptr, ptr }
%"class.std::shared_ptr.10" = type { %"class.std::__shared_ptr.11" }
%"class.std::__shared_ptr.11" = type { ptr, %"class.std::__shared_count" }
%"class.std::vector.13" = type { %"struct.std::_Vector_base.14" }
%"struct.std::_Vector_base.14" = type { %"struct.std::_Vector_base<std::shared_ptr<rocksdb::TablePropertiesCollectorFactory>, std::allocator<std::shared_ptr<rocksdb::TablePropertiesCollectorFactory>>>::_Vector_impl" }
%"struct.std::_Vector_base<std::shared_ptr<rocksdb::TablePropertiesCollectorFactory>, std::allocator<std::shared_ptr<rocksdb::TablePropertiesCollectorFactory>>>::_Vector_impl" = type { %"struct.std::_Vector_base<std::shared_ptr<rocksdb::TablePropertiesCollectorFactory>, std::allocator<std::shared_ptr<rocksdb::TablePropertiesCollectorFactory>>>::_Vector_impl_data" }
%"struct.std::_Vector_base<std::shared_ptr<rocksdb::TablePropertiesCollectorFactory>, std::allocator<std::shared_ptr<rocksdb::TablePropertiesCollectorFactory>>>::_Vector_impl_data" = type { ptr, ptr, ptr }
%"class.std::shared_ptr.18" = type { %"class.std::__shared_ptr.19" }
%"class.std::__shared_ptr.19" = type { ptr, %"class.std::__shared_count" }
%"struct.rocksdb::ColumnFamilyOptions" = type <{ %"struct.rocksdb::AdvancedColumnFamilyOptions", ptr, %"class.std::shared_ptr.63", ptr, %"class.std::shared_ptr.66", i64, i8, i8, [6 x i8], %"struct.rocksdb::CompressionOptions", %"struct.rocksdb::CompressionOptions", i32, [4 x i8], %"class.std::shared_ptr", i64, i64, i8, [7 x i8], %"class.std::shared_ptr.69", %"class.std::vector.41", %"class.std::shared_ptr.72", %"class.std::shared_ptr.75", i32, [4 x i8] }>
%"class.std::shared_ptr.63" = type { %"class.std::__shared_ptr.64" }
%"class.std::__shared_ptr.64" = type { ptr, %"class.std::__shared_count" }
%"class.std::shared_ptr.66" = type { %"class.std::__shared_ptr.67" }
%"class.std::__shared_ptr.67" = type { ptr, %"class.std::__shared_count" }
%"struct.rocksdb::CompressionOptions" = type <{ i32, i32, i32, i32, i32, i32, i8, [7 x i8], i64, i8, [3 x i8], i32, i8, [7 x i8] }>
%"class.std::shared_ptr.69" = type { %"class.std::__shared_ptr.70" }
%"class.std::__shared_ptr.70" = type { ptr, %"class.std::__shared_count" }
%"class.std::vector.41" = type { %"struct.std::_Vector_base.42" }
%"struct.std::_Vector_base.42" = type { %"struct.std::_Vector_base<rocksdb::DbPath, std::allocator<rocksdb::DbPath>>::_Vector_impl" }
%"struct.std::_Vector_base<rocksdb::DbPath, std::allocator<rocksdb::DbPath>>::_Vector_impl" = type { %"struct.std::_Vector_base<rocksdb::DbPath, std::allocator<rocksdb::DbPath>>::_Vector_impl_data" }
%"struct.std::_Vector_base<rocksdb::DbPath, std::allocator<rocksdb::DbPath>>::_Vector_impl_data" = type { ptr, ptr, ptr }
%"class.std::shared_ptr.72" = type { %"class.std::__shared_ptr.73" }
%"class.std::__shared_ptr.73" = type { ptr, %"class.std::__shared_count" }
%"class.std::shared_ptr.75" = type { %"class.std::__shared_ptr.76" }
%"class.std::__shared_ptr.76" = type { ptr, %"class.std::__shared_count" }
%"struct.rocksdb::DBOptions" = type { i8, i8, i8, i8, i8, i8, i8, i8, ptr, %"class.std::shared_ptr.29", %"class.std::shared_ptr.32", %"class.std::shared_ptr.35", i8, i32, i32, i64, %"class.std::shared_ptr.38", i8, %"class.std::vector.41", %"class.std::__cxx11::basic_string", %"class.std::__cxx11::basic_string", i64, i32, i32, i32, i32, i64, i64, i64, i64, i64, i32, i64, i64, i64, i8, i8, i8, i8, i8, i8, i32, i32, i8, i64, i8, i64, %"class.std::shared_ptr.49", i32, i64, i64, i64, i8, i64, i64, i8, %"class.std::vector.52", i8, i64, i8, i8, i8, i8, i64, i64, i64, i8, i8, i8, i8, %"class.std::shared_ptr.18", ptr, i8, i8, i8, i8, i8, i8, i8, i8, i8, i8, i8, i64, %"class.std::shared_ptr.57", i8, i32, i64, i8, %"class.std::__cxx11::basic_string", %"class.rocksdb::SmallEnumSet", %"class.std::shared_ptr.60", i8, i8, %"class.std::__cxx11::basic_string" }
%"class.std::shared_ptr.29" = type { %"class.std::__shared_ptr.30" }
%"class.std::__shared_ptr.30" = type { ptr, %"class.std::__shared_count" }
%"class.std::shared_ptr.32" = type { %"class.std::__shared_ptr.33" }
%"class.std::__shared_ptr.33" = type { ptr, %"class.std::__shared_count" }
%"class.std::shared_ptr.35" = type { %"class.std::__shared_ptr.36" }
%"class.std::__shared_ptr.36" = type { ptr, %"class.std::__shared_count" }
%"class.std::shared_ptr.38" = type { %"class.std::__shared_ptr.39" }
%"class.std::__shared_ptr.39" = type { ptr, %"class.std::__shared_count" }
%"class.std::shared_ptr.49" = type { %"class.std::__shared_ptr.50" }
%"class.std::__shared_ptr.50" = type { ptr, %"class.std::__shared_count" }
%"class.std::vector.52" = type { %"struct.std::_Vector_base.53" }
%"struct.std::_Vector_base.53" = type { %"struct.std::_Vector_base<std::shared_ptr<rocksdb::EventListener>, std::allocator<std::shared_ptr<rocksdb::EventListener>>>::_Vector_impl" }
%"struct.std::_Vector_base<std::shared_ptr<rocksdb::EventListener>, std::allocator<std::shared_ptr<rocksdb::EventListener>>>::_Vector_impl" = type { %"struct.std::_Vector_base<std::shared_ptr<rocksdb::EventListener>, std::allocator<std::shared_ptr<rocksdb::EventListener>>>::_Vector_impl_data" }
%"struct.std::_Vector_base<std::shared_ptr<rocksdb::EventListener>, std::allocator<std::shared_ptr<rocksdb::EventListener>>>::_Vector_impl_data" = type { ptr, ptr, ptr }
%"class.std::shared_ptr.57" = type { %"class.std::__shared_ptr.58" }
%"class.std::__shared_ptr.58" = type { ptr, %"class.std::__shared_count" }
%"class.rocksdb::SmallEnumSet" = type { i64 }
%"class.std::shared_ptr.60" = type { %"class.std::__shared_ptr.61" }
%"class.std::__shared_ptr.61" = type { ptr, %"class.std::__shared_count" }
%"class.std::__cxx11::basic_string" = type { %"struct.std::__cxx11::basic_string<char>::_Alloc_hider", i64, %union.anon }
%"struct.std::__cxx11::basic_string<char>::_Alloc_hider" = type { ptr }
%union.anon = type { i64, [8 x i8] }

; Function Attrs: mustprogress nounwind uwtable
define noundef ptr @_ZN7rocksdb7Options18PrepareForBulkLoadEv(ptr noundef nonnull align 8 dereferenceable(1508) %this) #1 align 2 {
entry:
  %this.addr = alloca ptr, align 8
  store ptr %this, ptr %this.addr, align 8
  %this1 = load ptr, ptr %this.addr, align 8
  %add.ptr = getelementptr inbounds i8, ptr %this1, i64 688
  %level0_file_num_compaction_trigger = getelementptr inbounds %"struct.rocksdb::ColumnFamilyOptions", ptr %add.ptr, i32 0, i32 11
  store i32 1073741824, ptr %level0_file_num_compaction_trigger, align 8
  %add.ptr2 = getelementptr inbounds i8, ptr %this1, i64 688
  %level0_slowdown_writes_trigger = getelementptr inbounds %"struct.rocksdb::AdvancedColumnFamilyOptions", ptr %add.ptr2, i32 0, i32 16
  store i32 1073741824, ptr %level0_slowdown_writes_trigger, align 4
  %add.ptr3 = getelementptr inbounds i8, ptr %this1, i64 688
  %level0_stop_writes_trigger = getelementptr inbounds %"struct.rocksdb::AdvancedColumnFamilyOptions", ptr %add.ptr3, i32 0, i32 17
  store i32 1073741824, ptr %level0_stop_writes_trigger, align 8
  %add.ptr4 = getelementptr inbounds i8, ptr %this1, i64 688
  %soft_pending_compaction_bytes_limit = getelementptr inbounds %"struct.rocksdb::AdvancedColumnFamilyOptions", ptr %add.ptr4, i32 0, i32 26
  store i64 0, ptr %soft_pending_compaction_bytes_limit, align 8
  %add.ptr5 = getelementptr inbounds i8, ptr %this1, i64 688
  %hard_pending_compaction_bytes_limit = getelementptr inbounds %"struct.rocksdb::AdvancedColumnFamilyOptions", ptr %add.ptr5, i32 0, i32 27
  store i64 0, ptr %hard_pending_compaction_bytes_limit, align 8
  %add.ptr6 = getelementptr inbounds i8, ptr %this1, i64 688
  %disable_auto_compactions = getelementptr inbounds %"struct.rocksdb::ColumnFamilyOptions", ptr %add.ptr6, i32 0, i32 16
  store i8 1, ptr %disable_auto_compactions, align 8
  %add.ptr7 = getelementptr inbounds i8, ptr %this1, i64 688
  %max_compaction_bytes = getelementptr inbounds %"struct.rocksdb::AdvancedColumnFamilyOptions", ptr %add.ptr7, i32 0, i32 24
  store i64 1152921504606846976, ptr %max_compaction_bytes, align 8
  %add.ptr8 = getelementptr inbounds i8, ptr %this1, i64 688
  %num_levels = getelementptr inbounds %"struct.rocksdb::AdvancedColumnFamilyOptions", ptr %add.ptr8, i32 0, i32 15
  store i32 2, ptr %num_levels, align 8
  %add.ptr9 = getelementptr inbounds i8, ptr %this1, i64 688
  %max_write_buffer_number = getelementptr inbounds %"struct.rocksdb::AdvancedColumnFamilyOptions", ptr %add.ptr9, i32 0, i32 0
  store i32 6, ptr %max_write_buffer_number, align 8
  %add.ptr10 = getelementptr inbounds i8, ptr %this1, i64 688
  %min_write_buffer_number_to_merge = getelementptr inbounds %"struct.rocksdb::AdvancedColumnFamilyOptions", ptr %add.ptr10, i32 0, i32 1
  store i32 1, ptr %min_write_buffer_number_to_merge, align 4
  %max_background_flushes = getelementptr inbounds %"struct.rocksdb::DBOptions", ptr %this1, i32 0, i32 25
  store i32 4, ptr %max_background_flushes, align 4
  %max_background_compactions = getelementptr inbounds %"struct.rocksdb::DBOptions", ptr %this1, i32 0, i32 23
  store i32 2, ptr %max_background_compactions, align 4
  %add.ptr11 = getelementptr inbounds i8, ptr %this1, i64 688
  %target_file_size_base = getelementptr inbounds %"struct.rocksdb::AdvancedColumnFamilyOptions", ptr %add.ptr11, i32 0, i32 18
  store i64 268435456, ptr %target_file_size_base, align 8
  ret ptr %this1
}