; Function Attrs: mustprogress nofree norecurse nosync nounwind willreturn memory(argmem: write) uwtable
define noundef nonnull ptr @_ZN7rocksdb7Options18PrepareForBulkLoadEv(ptr noundef nonnull returned writeonly align 8 dereferenceable(1508) %this) local_unnamed_addr #8 align 2 {
entry:
  %add.ptr = getelementptr inbounds i8, ptr %this, i64 688
  %level0_file_num_compaction_trigger = getelementptr inbounds i8, ptr %this, i64 1384
  store i32 1073741824, ptr %level0_file_num_compaction_trigger, align 8
  %level0_slowdown_writes_trigger = getelementptr inbounds i8, ptr %this, i64 828
  store i32 1073741824, ptr %level0_slowdown_writes_trigger, align 4
  %level0_stop_writes_trigger = getelementptr inbounds i8, ptr %this, i64 832
  store i32 1073741824, ptr %level0_stop_writes_trigger, align 8
  %soft_pending_compaction_bytes_limit = getelementptr inbounds i8, ptr %this, i64 904
  %disable_auto_compactions = getelementptr inbounds i8, ptr %this, i64 1424
  tail call void @llvm.memset.p0.i64(ptr noundef nonnull align 8 dereferenceable(16) %soft_pending_compaction_bytes_limit, i8 0, i64 16, i1 false)
  store i8 1, ptr %disable_auto_compactions, align 8
  %max_compaction_bytes = getelementptr inbounds i8, ptr %this, i64 888
  store i64 1152921504606846976, ptr %max_compaction_bytes, align 8
  %num_levels = getelementptr inbounds i8, ptr %this, i64 824
  store i32 2, ptr %num_levels, align 8
  store i32 6, ptr %add.ptr, align 8
  %min_write_buffer_number_to_merge = getelementptr inbounds i8, ptr %this, i64 692
  store i32 1, ptr %min_write_buffer_number_to_merge, align 4
  %max_background_flushes = getelementptr inbounds i8, ptr %this, i64 220
  store i32 4, ptr %max_background_flushes, align 4
  %max_background_compactions = getelementptr inbounds i8, ptr %this, i64 212
  store i32 2, ptr %max_background_compactions, align 4
  %target_file_size_base = getelementptr inbounds i8, ptr %this, i64 840
  store i64 268435456, ptr %target_file_size_base, align 8
  ret ptr %this
}